(lp0
(lp1
I33
aI65
aI60
aI64
aI25
aI29
aI58
aI23
aI42
aI52
aI67
aI63
aI51
aI32
aI19
aI49
aI24
aI59
aI20
aI72
aI3
aI75
aI50
aI31
aI39
aI2
aI46
aI74
aI44
aI55
aI45
aI4
aI47
aI14
aI0
aI43
aI54
aI5
aI53
aI6
aI9
aI1
aI56
aI10
aI17
aI18
aI15
aI13
aI11
aI7
aI12
aI8
aI16
aa(lp2
S'distwalked'
p3
aS'Resting_SaO2'
p4
aS'Weight_KG'
p5
aS'Height_CM'
p6
aS'BMI'
p7
aS'CoughNumYr'
p8
aS'PhlegmNumYr'
p9
aS'NumEpisodeLastYr'
p10
aS'ERLungProbtimes'
p11
aS'TreatChestTimes'
p12
aS'TreatSteroiTimes'
p13
aS'BronchTimes'
p14
aS'PneuTimes'
p15
aS'SmokStartAge'
p16
aS'CigPerDaySmokNow'
p17
aS'CigPerDaySmokAvg'
p18
aS'OthSmokChildYrs'
p19
aS'OthSmokYrs'
p20
aS'ExpSmokAtWorkYr'
p21
aS'MMRCDyspneaScor'
p22
aS'SGRQ_scoreSymptom'
p23
aS'SGRQ_scoreActive'
p24
aS'SGRQ_scoreImpact'
p25
aS'SGRQ_scoreTotal'
p26
aS'TLC_Slicer'
p27
aS'pctEmph_Slicer'
p28
aS'Insp_Below950_Slicer'
p29
aS'Insp_Below910_Slicer'
p30
aS'Insp_Below856_Slicer'
p31
aS'Slicer_15pctIn_Total'
p32
aS'Slicer_IntensityMean_In'
p33
aS'Slicer_IntensityStdDev_In'
p34
aS'FRC_Slicer'
p35
aS'pctGasTrap_Slicer'
p36
aS'Exp_Below950_Slicer'
p37
aS'Exp_Below910_Slicer'
p38
aS'Exp_Below856_Slicer'
p39
aS'Slicer_15pctEx_Total'
p40
aS'Slicer_IntensityMean_Ex'
p41
aS'Slicer_IntensityStdDev_Ex'
p42
aS'pctEmph_UpperThird_Slicer'
p43
aS'pctEmph_LowerThird_Slicer'
p44
aS'Slicer_ExpInspMeanAtten_ratio'
p45
aS'UpperThird_LowerThird_Slicer'
p46
aS'Pi10_SRWA'
p47
aS'Pi15_SRWA'
p48
aS'WallAreaPct_seg'
p49
aS'Age_Enroll'
p50
aS'TLCpred_race_adjusted'
p51
aS'FRCpred_race_adjusted'
p52
aS'TLCpp_race_adjusted'
p53
aS'FRCpp_race_adjusted'
p54
aS'BODE'
p55
aS'ATS_PackYears'
p56
aS'Duration_Smoking'
p57
aS'YearsSinceQuit'
p58
aS'Exacerbation_Frequency'
p59
aS'finalGold'
p60
aS'FEV1pp_utah'
p61
aS'FVCpp_utah'
p62
aS'FEV1_FVC_utah'
p63
aS'FEV1_utah'
p64
aS'FVC_utah'
p65
aS'PEF_utah'
p66
aS'FEF2575_utah'
p67
aS'pre_FEV1'
p68
aS'pre_FEV6'
p69
aS'pre_FVC'
p70
aS'pre_FEV1_FVC'
p71
aS'pre_PEF'
p72
aS'pre_FEF2575'
p73
aS'ATS_ERS'
p74
aS'deltaFEV1'
p75
aS'deltaFVC'
p76
aS'BDR_pct_FEV1'
p77
aS'BDR_pct_FVC'
p78
aa(lp79
I80
aI81
aI17
aI83
aI82
aI96
aI127
aI103
aI95
aI67
aI70
aI56
aI61
aI60
aI64
aI87
aI72
aI68
aI65
aI86
aI62
aI59
aI88
aI71
aI63
aI58
aI4
aI0
aI47
aI84
aI91
aI126
aI85
aI94
aI92
aI73
aI119
aI66
aI74
aI115
aI114
aI75
aI118
aI97
aI109
aI121
aI110
aI76
aI108
aI113
aI120
aI89
aI124
aI122
aI3
aI90
aI123
aI77
aI9
aI43
aI5
aI6
aI48
aI28
aI2
aI98
aI27
aI26
aI78
aI128
aI104
aI44
aI36
aI12
aI112
aI40
aI49
aI79
aI111
aI14
aI41
aI1
aI54
aI25
aI16
aI10
aI42
aI8
aI37
aI99
aI106
aI30
aI46
aI52
aI15
aI55
aI50
aI53
aI13
aI100
aI101
aI23
aI45
aI24
aI29
aI31
aI38
aI35
aI33
aI34
aI22
aI102
aI19
aI32
aI7
aI107
aI51
aI11
aI39
aI18
aI20
aI105
aa(lp80
S'Walk_Limit'
p81
aS'WalkSymp_BackPain'
p82
aS'WalkSymp_JointPain'
p83
aS'WalkSymp_Legs_Fatigue'
p84
aS'WalkSymp_ShortnessBreath'
p85
aS'OthFind_None'
p86
aS'OthFind_BronchWallThick'
p87
aS'OthFind_Consolidation'
p88
aS'OthFind_Cysts'
p89
aS'OthFind_GasTrapping'
p90
aS'OthFind_GroundGlass'
p91
aS'OthFind_Honeycombing'
p92
aS'OthFind_Atelectasis'
p93
aS'OthFind_MosaicAtten'
p94
aS'OthFind_NoncalcNodules'
p95
aS'OthFind_ReticularAb'
p96
aS'OthFind_TrachBrMalacia'
p97
aS'gender'
p98
aS'CancerBladder'
p99
aS'CancerBreast'
p100
aS'CancerColon'
p101
aS'CancerLung'
p102
aS'CancerProstate'
p103
aS'Angina'
p104
aS'CongestHeartFail'
p105
aS'CoronaryArtery'
p106
aS'Diabetes'
p107
aS'HighBloodPres'
p108
aS'HighCholest'
p109
aS'Pneumothorax'
p110
aS'HeartAttack'
p111
aS'BloodClots'
p112
aS'MacularDegen'
p113
aS'PeriphVascular'
p114
aS'stroke'
p115
aS'TIA'
p116
aS'GastroEsophReflx'
p117
aS'StomachUlcers'
p118
aS'CompressFracBack'
p119
aS'HipFracture'
p120
aS'OsteoArth'
p121
aS'Osteoporosis'
p122
aS'RheumArth'
p123
aS'StiffPainLimitWk'
p124
aS'StiffPainBack'
p125
aS'CABG'
p126
aS'Angioplasty'
p127
aS'SmokeMenthol'
p128
aS'PainfulJoints'
p129
aS'LowerBackPain'
p130
aS'PainJointType_Shoulder'
p131
aS'PainJointType_Elbow'
p132
aS'PainJointType_Wrist'
p133
aS'PainJointType_Hip'
p134
aS'PainJointType_Knee'
p135
aS'PainJointType_Foot'
p136
aS'HaveCough'
p137
aS'Cough4Plus'
p138
aS'CoughAM_yn'
p139
aS'CoughRestDay'
p140
aS'Cough3Mo'
p141
aS'HavePhlegm'
p142
aS'PhlegmOften'
p143
aS'PhlegmAM'
p144
aS'PhlegmRestDay'
p145
aS'Phlegm3Mo'
p146
aS'EpisodeCghPhlm'
p147
aS'ChstWheezyWhist'
p148
aS'ShrtBrthAttk'
p149
aS'ShrtBrth2Plus'
p150
aS'ChestWheez12mo'
p151
aS'WithCold'
p152
aS'ApartFromCold'
p153
aS'MoreOnceAWeek'
p154
aS'MostDaysNights'
p155
aS'AwakeByCough'
p156
aS'AwakeByShrtBrth'
p157
aS'SneezRunnyNose'
p158
aS'ItchyBurningEye'
p159
aS'UnablWalkCondOth'
p160
aS'LtdUphill'
p161
aS'LtdLevelSlow'
p162
aS'LtdLevelStop'
p163
aS'LtdLvlStop100'
p164
aS'LtdNotLeaveHm'
p165
aS'ERLungProb'
p166
aS'TreatChestIll'
p167
aS'TreatSteroids'
p168
aS'FlareupChestTrb'
p169
aS'Asthma'
p170
aS'HayFev'
p171
aS'BronchAttack'
p172
aS'Pneumonia'
p173
aS'PneuDxByDr'
p174
aS'ChronBronch'
p175
aS'Emphysema'
p176
aS'COPD'
p177
aS'SleepApnea'
p178
aS'SleepApDxByDr'
p179
aS'ChestIllOther'
p180
aS'ChestOper'
p181
aS'ChestInj'
p182
aS'EverSmokedCig'
p183
aS'SmokCigNow'
p184
aS'SmokPipeReg'
p185
aS'SmokPipeNow'
p186
aS'SmokCigarReg'
p187
aS'SmokCigarNow'
p188
aS'MothSmokPreg'
p189
aS'DustyJobEver'
p190
aS'FumesJobEver'
p191
aS'WorkDustyJobNow'
p192
aS'ExpFumesNow'
p193
aS'FathChronBronch'
p194
aS'MothChronBronch'
p195
aS'FathEmphysema'
p196
aS'MothEmphysema'
p197
aS'FathCOPD'
p198
aS'MothCOPD'
p199
aS'FathAsthma'
p200
aS'MothAsthma'
p201
aS'FathLungCancer'
p202
aS'MothLungCancer'
p203
aS'FathCigSmok'
p204
aS'MothCigSmok'
p205
aS'Severe_Exacerbations'
p206
aS'Chronic_Bronchitis'
p207
aS'BDR'
p208
aS'OthFind_HighConcerns_Bronchiec'
p209
aa.